; Function Attrs: mustprogress nounwind uwtable
define hidden void @_ZN16NewTypeArrayStub9emit_codeEP13LIR_Assembler(ptr noundef nonnull align 8 dereferenceable(120) %0, ptr noundef %1) unnamed_addr #0 align 2 {
  %3 = alloca %class.AddressLiteral, align 8
  %4 = alloca %class.RuntimeAddress, align 8
  %5 = load ptr, ptr %1, align 8
  %6 = getelementptr inbounds i8, ptr %0, i64 8
  tail call void @_ZN17AbstractAssembler4bindER5Label(ptr noundef nonnull align 8 dereferenceable(24) %5, ptr noundef nonnull align 8 dereferenceable(33) %6) #6
  %7 = load ptr, ptr %1, align 8
  %8 = tail call noundef ptr @_ZN8Runtime18blob_forENS_6StubIDE(i32 noundef 11) #6
  %9 = getelementptr inbounds i8, ptr %8, i64 36
  %10 = load i32, ptr %9, align 4
  %11 = sext i32 %10 to i64
  %12 = getelementptr inbounds i8, ptr %8, i64 %11
  call void @_ZN14AddressLiteralC2EPhN9relocInfo9relocTypeE(ptr noundef nonnull align 8 dereferenceable(56) %4, ptr noundef %12, i32 noundef 6) #6
  %13 = load ptr, ptr %4, align 8
  %14 = getelementptr inbounds i8, ptr %13, i64 16
  %15 = load ptr, ptr %14, align 8
  call void %15(ptr noundef nonnull align 8 dereferenceable(20) %4, ptr noundef nonnull align 8 dereferenceable(40) %3) #6
  %16 = getelementptr inbounds i8, ptr %3, i64 40
  %17 = getelementptr inbounds i8, ptr %4, i64 40
  call void @llvm.memcpy.p0.p0.i64(ptr noundef nonnull align 8 dereferenceable(16) %16, ptr noundef nonnull align 8 dereferenceable(16) %17, i64 16, i1 false)
  call void @_ZN14MacroAssembler4callE14AddressLiteral8Register(ptr noundef nonnull align 8 dereferenceable(40) %7, ptr noundef nonnull %3, i32 0) #6
  %18 = getelementptr inbounds i8, ptr %0, i64 112
  %19 = load ptr, ptr %18, align 8
  %20 = call noundef i32 @_ZNK13LIR_Assembler11code_offsetEv(ptr noundef nonnull align 8 dereferenceable(96) %1) #6
  call void @_ZN13LIR_Assembler13add_call_infoEiP12CodeEmitInfo(ptr noundef nonnull align 8 dereferenceable(96) %1, i32 noundef %20, ptr noundef %19) #6
  %21 = load ptr, ptr %18, align 8
  call void @_ZN13LIR_Assembler14verify_oop_mapEP12CodeEmitInfo(ptr noundef nonnull align 8 dereferenceable(96) %1, ptr noundef %21) #6
  %22 = load ptr, ptr %1, align 8
  %23 = getelementptr inbounds i8, ptr %0, i64 48
  call void @_ZN9Assembler3jmpER5Labelb(ptr noundef nonnull align 8 dereferenceable(40) %22, ptr noundef nonnull align 8 dereferenceable(33) %23, i1 noundef zeroext true) #6
  ret void
}